; Function Attrs: mustprogress nofree norecurse nosync nounwind willreturn memory(read, inaccessiblemem: none) uwtable
define hidden noundef ptr @_ZNK18elim_unconstrained10get_parentEj(ptr nocapture noundef nonnull readonly align 8 dereferenceable(194) %this, i32 noundef %n) local_unnamed_addr #5 align 2 {
entry:
  %m_nodes.i = getelementptr inbounds i8, ptr %this, i64 104
  %0 = load ptr, ptr %m_nodes.i, align 8
  %idxprom.i.i = zext i32 %n to i64
  %m_parents = getelementptr inbounds %"struct.elim_unconstrained::node", ptr %0, i64 %idxprom.i.i, i32 5
  %1 = load ptr, ptr %m_parents, align 8
  %cmp.i.i = icmp eq ptr %1, null
  br i1 %cmp.i.i, label %return, label %_ZNK6vectorIP4exprLb0EjE3endEv.exit

_ZNK6vectorIP4exprLb0EjE3endEv.exit:              ; preds = %entry
  %arrayidx.i.i7 = getelementptr inbounds i8, ptr %1, i64 -4
  %2 = load i32, ptr %arrayidx.i.i7, align 4
  %3 = zext i32 %2 to i64
  %add.ptr.i = getelementptr inbounds ptr, ptr %1, i64 %3
  %cmp.not23 = icmp eq i32 %2, 0
  br i1 %cmp.not23, label %return, label %for.body.lr.ph

for.body.lr.ph:                                   ; preds = %_ZNK6vectorIP4exprLb0EjE3endEv.exit
  %m_root.i.i = getelementptr inbounds i8, ptr %this, i64 184
  %4 = load ptr, ptr %m_root.i.i, align 8
  br label %for.body

for.body:                                         ; preds = %for.body.lr.ph, %for.inc
  %__begin1.024 = phi ptr [ %1, %for.body.lr.ph ], [ %incdec.ptr, %for.inc ]
  %5 = load ptr, ptr %__begin1.024, align 8
  %6 = load i32, ptr %5, align 4
  %idxprom.i.i.i = zext i32 %6 to i64
  %arrayidx.i.i.i = getelementptr inbounds i32, ptr %4, i64 %idxprom.i.i.i
  %7 = load i32, ptr %arrayidx.i.i.i, align 4
  %idxprom.i.i9 = zext i32 %7 to i64
  %arrayidx.i.i10 = getelementptr inbounds %"struct.elim_unconstrained::node", ptr %0, i64 %idxprom.i.i9
  %8 = load i32, ptr %arrayidx.i.i10, align 8
  %cmp5.not = icmp eq i32 %8, 0
  br i1 %cmp5.not, label %for.inc, label %land.lhs.true

land.lhs.true:                                    ; preds = %for.body
  %m_term = getelementptr inbounds i8, ptr %arrayidx.i.i10, i64 8
  %9 = load ptr, ptr %m_term, align 8
  %m_orig = getelementptr inbounds i8, ptr %arrayidx.i.i10, i64 16
  %10 = load ptr, ptr %m_orig, align 8
  %cmp8 = icmp eq ptr %9, %10
  br i1 %cmp8, label %return, label %for.inc

for.inc:                                          ; preds = %for.body, %land.lhs.true
  %incdec.ptr = getelementptr inbounds i8, ptr %__begin1.024, i64 8
  %cmp.not = icmp eq ptr %incdec.ptr, %add.ptr.i
  br i1 %cmp.not, label %return, label %for.body

return:                                           ; preds = %land.lhs.true, %for.inc, %entry, %_ZNK6vectorIP4exprLb0EjE3endEv.exit
  %retval.0 = phi ptr [ null, %_ZNK6vectorIP4exprLb0EjE3endEv.exit ], [ null, %entry ], [ null, %for.inc ], [ %5, %land.lhs.true ]
  ret ptr %retval.0
}